-----BEGIN CERTIFICATE-----
MIIDTTCCAragAwIBAgIENm6ibzANBgkqhkiG9w0BAQUFADBSMQswCQYDVQQGEwJV
UzEkMCIGA1UEChMbRGlnaXRhbCBTaWduYXR1cmUgVHJ1c3QgQ28uMR0wGwYDVQQL
ExREU1QgKEFOWCBOZXR3b3JrKSBDQTAeFw05ODEyMDkxNTQ2NDhaFw0xODEyMDkx
NjE2NDhaMFIxCzAJBgNVBAYTAlVTMSQwIgYDVQQKExtEaWdpdGFsIFNpZ25hdHVy
ZSBUcnVzdCBDby4xHTAbBgNVBAsTFERTVCAoQU5YIE5ldHdvcmspIENBMIGdMA0G
CSqGSIb3DQEBAQUAA4GLADCBhwKBgQC0SBGAWKDVpZkP9jcsRLZu0XzzKmueEbaI
IwRccSWeahJ3EW6/aDllqPay9qIYsokVoGe3eowiSGv2hDQftsr3G3LL8ltI04ce
InYTBLSsbJZ/5w4IyTJRMC3VgOghZ7rzXggkLAdZnZAa7kbJtaQelrRBkdR/0o04
JrBvQ24JfQIBA6OCATAwggEsMBEGCWCGSAGG+EIBAQQEAwIABzB0BgNVHR8EbTBr
MGmgZ6BlpGMwYTELMAkGA1UEBhMCVVMxJDAiBgNVBAoTG0RpZ2l0YWwgU2lnbmF0
dXJlIFRydXN0IENvLjEdMBsGA1UECxMURFNUIChBTlggTmV0d29yaykgQ0ExDTAL
BgNVBAMTBENSTDEwKwYDVR0QBCQwIoAPMTk5ODEyMDkxNTQ2NDhagQ8yMDE4MTIw
OTE1NDY0OFowCwYDVR0PBAQDAgEGMB8GA1UdIwQYMBaAFIwWVXDMFgpTZMKlhKqz
ZBdDP4I2MB0GA1UdDgQWBBSMFlVwzBYKU2TCpYSqs2QXQz+CNjAMBgNVHRMEBTAD
AQH/MBkGCSqGSIb2fQdBAAQMMAobBFY0LjADAgSQMA0GCSqGSIb3DQEBBQUAA4GB
AEklyWCxDF+pORDTxTRVfc95wynr3vnCQPnoVsXwL+z02exIUbhjOF6TbhiWhbnK
UJykuOpmJmiThW9vTHHQvnoLPDG5975pnhDX0UDorBZxq66rOOFwscqSFuBdhaYY
gAYAnOGmGEJRp2hoWe8mlF+tMQz+KR4XAYQ3W+gSMqNd
-----END CERTIFICATE-----
Certificate:
    Data:
        Version: 3 (0x2)
        Serial Number: 913220207 (0x366ea26f)
        Signature Algorithm: sha1WithRSAEncryption
        Issuer: C=US, O=Digital Signature Trust Co., OU=DST (ANX Network) CA
        Validity
            Not Before: Dec  9 15:46:48 1998 GMT
            Not After : Dec  9 16:16:48 2018 GMT
        Subject: C=US, O=Digital Signature Trust Co., OU=DST (ANX Network) CA
        Subject Public Key Info:
            Public Key Algorithm: rsaEncryption
            RSA Public Key: (1024 bit)
                Modulus (1024 bit):
                    00:b4:48:11:80:58:a0:d5:a5:99:0f:f6:37:2c:44:
                    b6:6e:d1:7c:f3:2a:6b:9e:11:b6:88:23:04:5c:71:
                    25:9e:6a:12:77:11:6e:bf:68:39:65:a8:f6:b2:f6:
                    a2:18:b2:89:15:a0:67:b7:7a:8c:22:48:6b:f6:84:
                    34:1f:b6:ca:f7:1b:72:cb:f2:5b:48:d3:87:1e:22:
                    76:13:04:b4:ac:6c:96:7f:e7:0e:08:c9:32:51:30:
                    2d:d5:80:e8:21:67:ba:f3:5e:08:24:2c:07:59:9d:
                    90:1a:ee:46:c9:b5:a4:1e:96:b4:41:91:d4:7f:d2:
                    8d:38:26:b0:6f:43:6e:09:7d
                Exponent: 3 (0x3)
        X509v3 extensions:
            Netscape Cert Type: 
                SSL CA, S/MIME CA, Object Signing CA
            X509v3 CRL Distribution Points: 
                DirName:/C=US/O=Digital Signature Trust Co./OU=DST (ANX Network) CA/CN=CRL1

            X509v3 Private Key Usage Period: 
                Not Before: Dec  9 15:46:48 1998 GMT, Not After: Dec  9 15:46:48 2018 GMT
            X509v3 Key Usage: 
                Certificate Sign, CRL Sign
            X509v3 Authority Key Identifier: 
                keyid:8C:16:55:70:CC:16:0A:53:64:C2:A5:84:AA:B3:64:17:43:3F:82:36

            X509v3 Subject Key Identifier: 
                8C:16:55:70:CC:16:0A:53:64:C2:A5:84:AA:B3:64:17:43:3F:82:36
            X509v3 Basic Constraints: 
                CA:TRUE
            1.2.840.113533.7.65.0: 
                0
..V4.0....
    Signature Algorithm: sha1WithRSAEncryption
        49:25:c9:60:b1:0c:5f:a9:39:10:d3:c5:34:55:7d:cf:79:c3:
        29:eb:de:f9:c2:40:f9:e8:56:c5:f0:2f:ec:f4:d9:ec:48:51:
        b8:63:38:5e:93:6e:18:96:85:b9:ca:50:9c:a4:b8:ea:66:26:
        68:93:85:6f:6f:4c:71:d0:be:7a:0b:3c:31:b9:f7:be:69:9e:
        10:d7:d1:40:e8:ac:16:71:ab:ae:ab:38:e1:70:b1:ca:92:16:
        e0:5d:85:a6:18:80:06:00:9c:e1:a6:18:42:51:a7:68:68:59:
        ef:26:94:5f:ad:31:0c:fe:29:1e:17:01:84:37:5b:e8:12:32:
        a3:5d
SHA1 Fingerprint=76:39:C7:18:47:E1:51:B5:C7:EA:01:C7:58:FB:F1:2A:BA:29:8F:7A
