-----BEGIN CERTIFICATE-----
MIIDLTCCApagAwIBAgIBADANBgkqhkiG9w0BAQQFADCB0TELMAkGA1UEBhMCWkEx
FTATBgNVBAgTDFdlc3Rlcm4gQ2FwZTESMBAGA1UEBxMJQ2FwZSBUb3duMRowGAYD
VQQKExFUaGF3dGUgQ29uc3VsdGluZzEoMCYGA1UECxMfQ2VydGlmaWNhdGlvbiBT
ZXJ2aWNlcyBEaXZpc2lvbjEkMCIGA1UEAxMbVGhhd3RlIFBlcnNvbmFsIEZyZWVt
YWlsIENBMSswKQYJKoZIhvcNAQkBFhxwZXJzb25hbC1mcmVlbWFpbEB0aGF3dGUu
Y29tMB4XDTk2MDEwMTAwMDAwMFoXDTIwMTIzMTIzNTk1OVowgdExCzAJBgNVBAYT
AlpBMRUwEwYDVQQIEwxXZXN0ZXJuIENhcGUxEjAQBgNVBAcTCUNhcGUgVG93bjEa
MBgGA1UEChMRVGhhd3RlIENvbnN1bHRpbmcxKDAmBgNVBAsTH0NlcnRpZmljYXRp
b24gU2VydmljZXMgRGl2aXNpb24xJDAiBgNVBAMTG1RoYXd0ZSBQZXJzb25hbCBG
cmVlbWFpbCBDQTErMCkGCSqGSIb3DQEJARYccGVyc29uYWwtZnJlZW1haWxAdGhh
d3RlLmNvbTCBnzANBgkqhkiG9w0BAQEFAAOBjQAwgYkCgYEA1GnX1LCUZFtx6UfY
DFG26nKRsIRefS0Nj3sS34UldSh0OkIsYyeflXtL734Zhx2G6qPduc6WZBrCFG5E
rHzmj+hND3EfQDimAKOHePb5lIZererAXnbr2RSjXW56fAylS1V/Bhkpf56aJtVq
uzgkCGqYx7Hao5iR/Xnb5VrEHLkCAwEAAaMTMBEwDwYDVR0TAQH/BAUwAwEB/zAN
BgkqhkiG9w0BAQQFAAOBgQDH7JJ+Tvj1lqVnYiqk8E0RYNBvjWBYYawmu1I1XAjP
MPuoSpaKH2JCI4wXD/S6ZJwXrEcp352YXtJsYHFcoqzceePnbgBHH7UNKOgCneSa
/RP0ptl8sfjcXyMmCZGAc9AUG95DqYMl8uacLxXK/qarigd1iwzdUYRr5PjRznei
gQ==
-----END CERTIFICATE-----
Certificate:
    Data:
        Version: 3 (0x2)
        Serial Number: 0 (0x0)
        Signature Algorithm: md5WithRSAEncryption
        Issuer: C=ZA, ST=Western Cape, L=Cape Town, O=Thawte Consulting, OU=Certification Services Division, CN=Thawte Personal Freemail CA/emailAddress=personal-freemail@thawte.com
        Validity
            Not Before: Jan  1 00:00:00 1996 GMT
            Not After : Dec 31 23:59:59 2020 GMT
        Subject: C=ZA, ST=Western Cape, L=Cape Town, O=Thawte Consulting, OU=Certification Services Division, CN=Thawte Personal Freemail CA/emailAddress=personal-freemail@thawte.com
        Subject Public Key Info:
            Public Key Algorithm: rsaEncryption
            RSA Public Key: (1024 bit)
                Modulus (1024 bit):
                    00:d4:69:d7:d4:b0:94:64:5b:71:e9:47:d8:0c:51:
                    b6:ea:72:91:b0:84:5e:7d:2d:0d:8f:7b:12:df:85:
                    25:75:28:74:3a:42:2c:63:27:9f:95:7b:4b:ef:7e:
                    19:87:1d:86:ea:a3:dd:b9:ce:96:64:1a:c2:14:6e:
                    44:ac:7c:e6:8f:e8:4d:0f:71:1f:40:38:a6:00:a3:
                    87:78:f6:f9:94:86:5e:ad:ea:c0:5e:76:eb:d9:14:
                    a3:5d:6e:7a:7c:0c:a5:4b:55:7f:06:19:29:7f:9e:
                    9a:26:d5:6a:bb:38:24:08:6a:98:c7:b1:da:a3:98:
                    91:fd:79:db:e5:5a:c4:1c:b9
                Exponent: 65537 (0x10001)
        X509v3 extensions:
            X509v3 Basic Constraints: critical
                CA:TRUE
    Signature Algorithm: md5WithRSAEncryption
        c7:ec:92:7e:4e:f8:f5:96:a5:67:62:2a:a4:f0:4d:11:60:d0:
        6f:8d:60:58:61:ac:26:bb:52:35:5c:08:cf:30:fb:a8:4a:96:
        8a:1f:62:42:23:8c:17:0f:f4:ba:64:9c:17:ac:47:29:df:9d:
        98:5e:d2:6c:60:71:5c:a2:ac:dc:79:e3:e7:6e:00:47:1f:b5:
        0d:28:e8:02:9d:e4:9a:fd:13:f4:a6:d9:7c:b1:f8:dc:5f:23:
        26:09:91:80:73:d0:14:1b:de:43:a9:83:25:f2:e6:9c:2f:15:
        ca:fe:a6:ab:8a:07:75:8b:0c:dd:51:84:6b:e4:f8:d1:ce:77:
        a2:81
SHA1 Fingerprint=20:99:00:B6:3D:95:57:28:14:0C:D1:36:22:D8:C6:87:A4:EB:00:85
