-----BEGIN CERTIFICATE-----
MIIDpDCCAoygAwIBAgIQbxySxFMAQUXKn32Jbxgj4DANBgkqhkiG9w0BAQQFADBd
MRgwFgYDVQQKEw9lU2lnbiBBdXN0cmFsaWExHzAdBgNVBAsTFlB1YmxpYyBTZWN1
cmUgU2VydmljZXMxIDAeBgNVBAMTF1ByaW1hcnkgVXRpbGl0eSBSb290IENBMB4X
DTAyMDUyNDAwMDAwMFoXDTEyMDUyMzIzNTk1OVowXTEYMBYGA1UEChMPZVNpZ24g
QXVzdHJhbGlhMR8wHQYDVQQLExZQdWJsaWMgU2VjdXJlIFNlcnZpY2VzMSAwHgYD
VQQDExdQcmltYXJ5IFV0aWxpdHkgUm9vdCBDQTCCASIwDQYJKoZIhvcNAQEBBQAD
ggEPADCCAQoCggEBAKRtrvId9EFzrm/FxERm87yx2oYNxnVETUZ8F8Rnpwe0fFXj
DlD2lmdBv40GA5GeD6cjTadufeT4mUice7Tmk6Xs87qSVNFapYuoaYhhu25gxTGm
NletjmeMDrolgYBI1GSluqBGhiolneM93BtaLAxENS5W42x9zYcYOxR9K492Ql2Z
KX09TKVUC8ICNYVPzcaecnBxymuSeMu4e46ePsLmoTPFcd8taPWPRPf+CBDVoDh/
kURyQGoPBJ0PJiWAOQrfGeMLXBJw1blgFriUWt409iKuO6dVpo7A+/99OfcWfUpC
82HJYInuJ5cDrzUPYCvw5G6P3kXsx5QPTk0TFl8CAwEAAaNgMF4wDwYDVR0TBAgw
BgEB/wIBCDALBgNVHQ8EBAMCAQYwHQYDVR0OBBYEFM0XQr5UpLX60ajANkrwhAFs
KlUuMB8GA1UdIwQYMBaAFM0XQr5UpLX60ajANkrwhAFsKlUuMA0GCSqGSIb3DQEB
BAUAA4IBAQAHCjlD7M44LArwqC0SVsPl36DXmiS/+an2BrLv9LeG4BujcFu6kgS9
VPPl2QxzsxEue6TI03SVoEzg8y0X3O8Xzjfnjp2SWTx/EjHiQS2S+CKP/NnP4pOY
YLLCfaxepav++gXR8RoeSExw/6qnA41Pc9JLFmzh4876WU48H9esypECCo31le/B
NEkpd4v3elP3DmTk/V+As+Pe6Ju9kd9fsiJUro69wouUcKVxsk1fO8Yo71xlKiBC
nlEI/sUJMWo5QtzgFmvHl8+aXzJk6UqhIMRJcxdH2IPmTjTYWcJixyDXbREnLh4k
/7EYbcryFcl/mMtgWHWBJKPJYcy7UIup
-----END CERTIFICATE-----
Certificate:
    Data:
        Version: 3 (0x2)
        Serial Number:
            6f:1c:92:c4:53:00:41:45:ca:9f:7d:89:6f:18:23:e0
        Signature Algorithm: md5WithRSAEncryption
        Issuer: O=eSign Australia, OU=Public Secure Services, CN=Primary Utility Root CA
        Validity
            Not Before: May 24 00:00:00 2002 GMT
            Not After : May 23 23:59:59 2012 GMT
        Subject: O=eSign Australia, OU=Public Secure Services, CN=Primary Utility Root CA
        Subject Public Key Info:
            Public Key Algorithm: rsaEncryption
            RSA Public Key: (2048 bit)
                Modulus (2048 bit):
                    00:a4:6d:ae:f2:1d:f4:41:73:ae:6f:c5:c4:44:66:
                    f3:bc:b1:da:86:0d:c6:75:44:4d:46:7c:17:c4:67:
                    a7:07:b4:7c:55:e3:0e:50:f6:96:67:41:bf:8d:06:
                    03:91:9e:0f:a7:23:4d:a7:6e:7d:e4:f8:99:48:9c:
                    7b:b4:e6:93:a5:ec:f3:ba:92:54:d1:5a:a5:8b:a8:
                    69:88:61:bb:6e:60:c5:31:a6:36:57:ad:8e:67:8c:
                    0e:ba:25:81:80:48:d4:64:a5:ba:a0:46:86:2a:25:
                    9d:e3:3d:dc:1b:5a:2c:0c:44:35:2e:56:e3:6c:7d:
                    cd:87:18:3b:14:7d:2b:8f:76:42:5d:99:29:7d:3d:
                    4c:a5:54:0b:c2:02:35:85:4f:cd:c6:9e:72:70:71:
                    ca:6b:92:78:cb:b8:7b:8e:9e:3e:c2:e6:a1:33:c5:
                    71:df:2d:68:f5:8f:44:f7:fe:08:10:d5:a0:38:7f:
                    91:44:72:40:6a:0f:04:9d:0f:26:25:80:39:0a:df:
                    19:e3:0b:5c:12:70:d5:b9:60:16:b8:94:5a:de:34:
                    f6:22:ae:3b:a7:55:a6:8e:c0:fb:ff:7d:39:f7:16:
                    7d:4a:42:f3:61:c9:60:89:ee:27:97:03:af:35:0f:
                    60:2b:f0:e4:6e:8f:de:45:ec:c7:94:0f:4e:4d:13:
                    16:5f
                Exponent: 65537 (0x10001)
        X509v3 extensions:
            X509v3 Basic Constraints: 
                CA:TRUE, pathlen:8
            X509v3 Key Usage: 
                Certificate Sign, CRL Sign
            X509v3 Subject Key Identifier: 
                CD:17:42:BE:54:A4:B5:FA:D1:A8:C0:36:4A:F0:84:01:6C:2A:55:2E
            X509v3 Authority Key Identifier: 
                keyid:CD:17:42:BE:54:A4:B5:FA:D1:A8:C0:36:4A:F0:84:01:6C:2A:55:2E

    Signature Algorithm: md5WithRSAEncryption
        07:0a:39:43:ec:ce:38:2c:0a:f0:a8:2d:12:56:c3:e5:df:a0:
        d7:9a:24:bf:f9:a9:f6:06:b2:ef:f4:b7:86:e0:1b:a3:70:5b:
        ba:92:04:bd:54:f3:e5:d9:0c:73:b3:11:2e:7b:a4:c8:d3:74:
        95:a0:4c:e0:f3:2d:17:dc:ef:17:ce:37:e7:8e:9d:92:59:3c:
        7f:12:31:e2:41:2d:92:f8:22:8f:fc:d9:cf:e2:93:98:60:b2:
        c2:7d:ac:5e:a5:ab:fe:fa:05:d1:f1:1a:1e:48:4c:70:ff:aa:
        a7:03:8d:4f:73:d2:4b:16:6c:e1:e3:ce:fa:59:4e:3c:1f:d7:
        ac:ca:91:02:0a:8d:f5:95:ef:c1:34:49:29:77:8b:f7:7a:53:
        f7:0e:64:e4:fd:5f:80:b3:e3:de:e8:9b:bd:91:df:5f:b2:22:
        54:ae:8e:bd:c2:8b:94:70:a5:71:b2:4d:5f:3b:c6:28:ef:5c:
        65:2a:20:42:9e:51:08:fe:c5:09:31:6a:39:42:dc:e0:16:6b:
        c7:97:cf:9a:5f:32:64:e9:4a:a1:20:c4:49:73:17:47:d8:83:
        e6:4e:34:d8:59:c2:62:c7:20:d7:6d:11:27:2e:1e:24:ff:b1:
        18:6d:ca:f2:15:c9:7f:98:cb:60:58:75:81:24:a3:c9:61:cc:
        bb:50:8b:a9
SHA1 Fingerprint=6A:6F:2A:8B:6E:26:15:08:8D:F5:9C:D2:4C:40:24:18:AE:42:A3:F1
