-----BEGIN CERTIFICATE-----
MIIDijCCAnKgAwIBAgIQco8NTo8VToo/P9nFtZ+hZDANBgkqhkiG9w0BAQQFADBQ
MRgwFgYDVQQKEw9lU2lnbiBBdXN0cmFsaWExFzAVBgNVBAsTDkdhdGVrZWVwZXIg
UEtJMRswGQYDVQQDExJHYXRla2VlcGVyIFJvb3QgQ0EwHhcNMDIwNTI0MDAwMDAw
WhcNMTQwNTIzMjM1OTU5WjBQMRgwFgYDVQQKEw9lU2lnbiBBdXN0cmFsaWExFzAV
BgNVBAsTDkdhdGVrZWVwZXIgUEtJMRswGQYDVQQDExJHYXRla2VlcGVyIFJvb3Qg
Q0EwggEiMA0GCSqGSIb3DQEBAQUAA4IBDwAwggEKAoIBAQC9+vfGbs6hpJSjFgjq
cFRkyFA2qQZW1IhFRXqwTdBQN50hCcyuGPKcK7XW/r7ohg8V2yY3lapJU7gRraew
5MSj7CdnhtsVjXhPK3WxaHHTgk6XCliMeaco/mE8EdR6aPMI5Z6Em+jVcuyGXpLk
S/hhSORmKr08GsGKj4yDYhEPXmYlCRki+nQgvP1qvIqnPhoX7oMU6pZb1fNxQvSq
5Fus6uK+UdWV94SGcobI2iKx5znr5PpGinJtYqhJjhqNcy9jacjKhmrnKbAazGov
kBE1U5U+t5GGnZ7LKZ4iDv2WyoSyFpFmIBHM3WDK3krrbfZ2qPmR4J9/D3Ewl4cz
PXc1AgMBAAGjYDBeMA8GA1UdEwQIMAYBAf8CAQgwCwYDVR0PBAQDAgEGMB0GA1Ud
DgQWBBSBt6XKJBoVNQud/bUsDXKwcrmLFTAfBgNVHSMEGDAWgBSBt6XKJBoVNQud
/bUsDXKwcrmLFTANBgkqhkiG9w0BAQQFAAOCAQEAVK6qtADWKvGBkfy1i3GUvPqF
U8ueJP7z8zovy/pcI34ly32jJkUnK42ttMHJU7WopSxuqT+jrSN39w4NV9Q5uhyZ
kM5mI6r1wo9QcYpg5/iN+q4advJ6OrLmH3gWR/CbLy/zpw/DGg3g+G9Q+3/voA8X
ZUDpejhy0VRxM18Uc7sb2+OUxSoWNKDCyChwUzxkk0Z1RQgkxffLttYRRfZvtKrn
v/8rH8OGC8QG7b9k1V5FLomh/IqHNt5+8dRhL/aTpGmTDKk6QRsAe/vsk3hY81zr
bmxWUP9g3+aH7EzEm5omuTmUzHlYgUsn+OrxkfspBAZjIQxTcEaTqMHvClzIwQ==
-----END CERTIFICATE-----
Certificate:
    Data:
        Version: 3 (0x2)
        Serial Number:
            72:8f:0d:4e:8f:15:4e:8a:3f:3f:d9:c5:b5:9f:a1:64
        Signature Algorithm: md5WithRSAEncryption
        Issuer: O=eSign Australia, OU=Gatekeeper PKI, CN=Gatekeeper Root CA
        Validity
            Not Before: May 24 00:00:00 2002 GMT
            Not After : May 23 23:59:59 2014 GMT
        Subject: O=eSign Australia, OU=Gatekeeper PKI, CN=Gatekeeper Root CA
        Subject Public Key Info:
            Public Key Algorithm: rsaEncryption
            RSA Public Key: (2048 bit)
                Modulus (2048 bit):
                    00:bd:fa:f7:c6:6e:ce:a1:a4:94:a3:16:08:ea:70:
                    54:64:c8:50:36:a9:06:56:d4:88:45:45:7a:b0:4d:
                    d0:50:37:9d:21:09:cc:ae:18:f2:9c:2b:b5:d6:fe:
                    be:e8:86:0f:15:db:26:37:95:aa:49:53:b8:11:ad:
                    a7:b0:e4:c4:a3:ec:27:67:86:db:15:8d:78:4f:2b:
                    75:b1:68:71:d3:82:4e:97:0a:58:8c:79:a7:28:fe:
                    61:3c:11:d4:7a:68:f3:08:e5:9e:84:9b:e8:d5:72:
                    ec:86:5e:92:e4:4b:f8:61:48:e4:66:2a:bd:3c:1a:
                    c1:8a:8f:8c:83:62:11:0f:5e:66:25:09:19:22:fa:
                    74:20:bc:fd:6a:bc:8a:a7:3e:1a:17:ee:83:14:ea:
                    96:5b:d5:f3:71:42:f4:aa:e4:5b:ac:ea:e2:be:51:
                    d5:95:f7:84:86:72:86:c8:da:22:b1:e7:39:eb:e4:
                    fa:46:8a:72:6d:62:a8:49:8e:1a:8d:73:2f:63:69:
                    c8:ca:86:6a:e7:29:b0:1a:cc:6a:2f:90:11:35:53:
                    95:3e:b7:91:86:9d:9e:cb:29:9e:22:0e:fd:96:ca:
                    84:b2:16:91:66:20:11:cc:dd:60:ca:de:4a:eb:6d:
                    f6:76:a8:f9:91:e0:9f:7f:0f:71:30:97:87:33:3d:
                    77:35
                Exponent: 65537 (0x10001)
        X509v3 extensions:
            X509v3 Basic Constraints: 
                CA:TRUE, pathlen:8
            X509v3 Key Usage: 
                Certificate Sign, CRL Sign
            X509v3 Subject Key Identifier: 
                81:B7:A5:CA:24:1A:15:35:0B:9D:FD:B5:2C:0D:72:B0:72:B9:8B:15
            X509v3 Authority Key Identifier: 
                keyid:81:B7:A5:CA:24:1A:15:35:0B:9D:FD:B5:2C:0D:72:B0:72:B9:8B:15

    Signature Algorithm: md5WithRSAEncryption
        54:ae:aa:b4:00:d6:2a:f1:81:91:fc:b5:8b:71:94:bc:fa:85:
        53:cb:9e:24:fe:f3:f3:3a:2f:cb:fa:5c:23:7e:25:cb:7d:a3:
        26:45:27:2b:8d:ad:b4:c1:c9:53:b5:a8:a5:2c:6e:a9:3f:a3:
        ad:23:77:f7:0e:0d:57:d4:39:ba:1c:99:90:ce:66:23:aa:f5:
        c2:8f:50:71:8a:60:e7:f8:8d:fa:ae:1a:76:f2:7a:3a:b2:e6:
        1f:78:16:47:f0:9b:2f:2f:f3:a7:0f:c3:1a:0d:e0:f8:6f:50:
        fb:7f:ef:a0:0f:17:65:40:e9:7a:38:72:d1:54:71:33:5f:14:
        73:bb:1b:db:e3:94:c5:2a:16:34:a0:c2:c8:28:70:53:3c:64:
        93:46:75:45:08:24:c5:f7:cb:b6:d6:11:45:f6:6f:b4:aa:e7:
        bf:ff:2b:1f:c3:86:0b:c4:06:ed:bf:64:d5:5e:45:2e:89:a1:
        fc:8a:87:36:de:7e:f1:d4:61:2f:f6:93:a4:69:93:0c:a9:3a:
        41:1b:00:7b:fb:ec:93:78:58:f3:5c:eb:6e:6c:56:50:ff:60:
        df:e6:87:ec:4c:c4:9b:9a:26:b9:39:94:cc:79:58:81:4b:27:
        f8:ea:f1:91:fb:29:04:06:63:21:0c:53:70:46:93:a8:c1:ef:
        0a:5c:c8:c1
SHA1 Fingerprint=C7:30:26:E3:25:FE:21:91:6B:55:C4:B5:3A:56:B1:3D:CA:F3:D6:25
